; Function Attrs: mustprogress nounwind uwtable
define internal noundef zeroext i1 @_ZN4llvm20MCAsmParserExtension15HandleDirectiveIN12_GLOBAL__N_114COFFMasmParserETnMT_FbNS_9StringRefENS_5SMLocEEXadL_ZNS3_21ParseDirectiveEndProcES5_S6_EEEEbPS0_S5_S6_(ptr noundef %0, ptr nocapture readnone %1, i64 %2, ptr %3) #0 align 2 {
  %5 = alloca %"class.llvm::StringRef", align 8
  %6 = alloca %"class.llvm::Twine", align 8
  %7 = alloca %"class.llvm::Twine", align 8
  %8 = alloca %"class.llvm::Twine", align 8
  %9 = alloca %"class.llvm::Twine", align 8
  call void @llvm.lifetime.start.p0(i64 16, ptr nonnull %5)
  call void @llvm.lifetime.start.p0(i64 40, ptr nonnull %6)
  call void @llvm.lifetime.start.p0(i64 40, ptr nonnull %7)
  call void @llvm.lifetime.start.p0(i64 40, ptr nonnull %8)
  call void @llvm.lifetime.start.p0(i64 40, ptr nonnull %9)
  call void @llvm.memset.p0.i64(ptr noundef nonnull align 8 dereferenceable(16) %5, i8 0, i64 16, i1 false)
  %10 = getelementptr inbounds nuw i8, ptr %0, i64 8
  %11 = load ptr, ptr %10, align 8
  %12 = tail call noundef nonnull align 8 dereferenceable(40) ptr @_ZNK4llvm11MCAsmParser6getTokEv(ptr noundef nonnull align 8 dereferenceable(34) %11) #16
  %13 = tail call ptr @_ZNK4llvm8AsmToken6getLocEv(ptr noundef nonnull align 8 dereferenceable(40) %12) #16
  %14 = load ptr, ptr %10, align 8
  %15 = load ptr, ptr %14, align 8
  %16 = getelementptr inbounds i8, ptr %15, i64 192
  %17 = load ptr, ptr %16, align 8
  %18 = call noundef zeroext i1 %17(ptr noundef nonnull align 8 dereferenceable(34) %14, ptr noundef nonnull align 8 dereferenceable(16) %5) #16
  br i1 %18, label %19, label %24

19:                                               ; preds = %4
  %20 = getelementptr inbounds nuw i8, ptr %6, i64 32
  %21 = getelementptr inbounds nuw i8, ptr %6, i64 33
  store i8 1, ptr %21, align 1
  store ptr @.str.62, ptr %6, align 8
  store i8 3, ptr %20, align 8
  %22 = load ptr, ptr %10, align 8
  %23 = call noundef zeroext i1 @_ZN4llvm11MCAsmParser5ErrorENS_5SMLocERKNS_5TwineENS_7SMRangeE(ptr noundef nonnull align 8 dereferenceable(34) %22, ptr %13, ptr noundef nonnull align 8 dereferenceable(34) %6, ptr null, ptr null) #16
  br label %_ZN12_GLOBAL__N_114COFFMasmParser21ParseDirectiveEndProcEN4llvm9StringRefENS1_5SMLocE.exit

24:                                               ; preds = %4
  %25 = getelementptr inbounds nuw i8, ptr %0, i64 24
  %26 = call noundef zeroext i1 @_ZNK4llvm15SmallVectorBaseIjE5emptyEv(ptr noundef nonnull align 8 dereferenceable(16) %25) #16
  br i1 %26, label %27, label %32

27:                                               ; preds = %24
  %28 = getelementptr inbounds nuw i8, ptr %7, i64 32
  %29 = getelementptr inbounds nuw i8, ptr %7, i64 33
  store i8 1, ptr %29, align 1
  store ptr @.str.63, ptr %7, align 8
  store i8 3, ptr %28, align 8
  %30 = load ptr, ptr %10, align 8
  %31 = call noundef zeroext i1 @_ZN4llvm11MCAsmParser5ErrorENS_5SMLocERKNS_5TwineENS_7SMRangeE(ptr noundef nonnull align 8 dereferenceable(34) %30, ptr %3, ptr noundef nonnull align 8 dereferenceable(34) %7, ptr null, ptr null) #16
  br label %_ZN12_GLOBAL__N_114COFFMasmParser21ParseDirectiveEndProcEN4llvm9StringRefENS1_5SMLocE.exit

32:                                               ; preds = %24
  %33 = load ptr, ptr %25, align 8
  %34 = call noundef i64 @_ZNK4llvm15SmallVectorBaseIjE4sizeEv(ptr noundef nonnull align 8 dereferenceable(16) %25) #16
  %35 = getelementptr inbounds %"class.llvm::StringRef", ptr %33, i64 %34
  %.sroa.2.0..sroa_idx.i = getelementptr inbounds i8, ptr %5, i64 8
  %.sroa.2.0.copyload.i = load i64, ptr %.sroa.2.0..sroa_idx.i, align 8
  %36 = getelementptr inbounds i8, ptr %35, i64 -8
  %37 = load i64, ptr %36, align 8
  %38 = icmp eq i64 %37, %.sroa.2.0.copyload.i
  br i1 %38, label %_ZNK4llvm9StringRef18equals_insensitiveES0_.exit.i, label %_ZN4llvmplERKNS_5TwineES2_.exit.i

_ZNK4llvm9StringRef18equals_insensitiveES0_.exit.i: ; preds = %32
  %39 = getelementptr inbounds i8, ptr %35, i64 -16
  %.sroa.02.0.copyload.i = load ptr, ptr %5, align 8
  %40 = call noundef i32 @_ZNK4llvm9StringRef19compare_insensitiveES0_(ptr noundef nonnull align 8 dereferenceable(16) %39, ptr %.sroa.02.0.copyload.i, i64 %.sroa.2.0.copyload.i) #16
  %41 = icmp eq i32 %40, 0
  br i1 %41, label %58, label %_ZN4llvmplERKNS_5TwineES2_.exit.i

_ZN4llvmplERKNS_5TwineES2_.exit.i:                ; preds = %_ZNK4llvm9StringRef18equals_insensitiveES0_.exit.i, %32
  %42 = load ptr, ptr %25, align 8
  %43 = call noundef i64 @_ZNK4llvm15SmallVectorBaseIjE4sizeEv(ptr noundef nonnull align 8 dereferenceable(16) %25) #16
  %44 = getelementptr inbounds %"class.llvm::StringRef", ptr %42, i64 %43
  %45 = getelementptr inbounds i8, ptr %44, i64 -16
  call void @llvm.experimental.noalias.scope.decl(metadata !25)
  %46 = getelementptr inbounds nuw i8, ptr %9, i64 32
  store i8 3, ptr %46, align 8, !alias.scope !25
  %47 = getelementptr inbounds nuw i8, ptr %9, i64 33
  store i8 5, ptr %47, align 1, !alias.scope !25
  store ptr @.str.64, ptr %9, align 8, !alias.scope !25
  %48 = load ptr, ptr %45, align 8, !noalias !25
  %49 = getelementptr inbounds nuw i8, ptr %9, i64 16
  store ptr %48, ptr %49, align 8, !alias.scope !25
  %50 = getelementptr inbounds i8, ptr %44, i64 -8
  %51 = load i64, ptr %50, align 8, !noalias !25
  %52 = getelementptr inbounds i8, ptr %9, i64 24
  store i64 %51, ptr %52, align 8, !alias.scope !25
  store ptr %9, ptr %8, align 8, !alias.scope !28
  %53 = getelementptr inbounds nuw i8, ptr %8, i64 16
  store ptr @.str.65, ptr %53, align 8, !alias.scope !28
  %54 = getelementptr inbounds nuw i8, ptr %8, i64 32
  store i8 2, ptr %54, align 8, !alias.scope !28
  %55 = getelementptr inbounds nuw i8, ptr %8, i64 33
  store i8 3, ptr %55, align 1, !alias.scope !28
  %56 = load ptr, ptr %10, align 8
  %57 = call noundef zeroext i1 @_ZN4llvm11MCAsmParser5ErrorENS_5SMLocERKNS_5TwineENS_7SMRangeE(ptr noundef nonnull align 8 dereferenceable(34) %56, ptr %13, ptr noundef nonnull align 8 dereferenceable(34) %8, ptr null, ptr null) #16
  br label %_ZN12_GLOBAL__N_114COFFMasmParser21ParseDirectiveEndProcEN4llvm9StringRefENS1_5SMLocE.exit

58:                                               ; preds = %_ZNK4llvm9StringRef18equals_insensitiveES0_.exit.i
  %59 = getelementptr inbounds nuw i8, ptr %0, i64 56
  %60 = load ptr, ptr %59, align 8
  %61 = call noundef i64 @_ZNK4llvm15SmallVectorBaseImE4sizeEv(ptr noundef nonnull align 8 dereferenceable(24) %59) #16
  %62 = getelementptr inbounds i8, ptr %60, i64 %61
  %63 = getelementptr inbounds i8, ptr %62, i64 -1
  %64 = load i8, ptr %63, align 1
  %65 = trunc i8 %64 to i1
  br i1 %65, label %66, label %75

66:                                               ; preds = %58
  %67 = load ptr, ptr %10, align 8
  %68 = load ptr, ptr %67, align 8
  %69 = getelementptr inbounds i8, ptr %68, i64 56
  %70 = load ptr, ptr %69, align 8
  %71 = call noundef nonnull align 8 dereferenceable(288) ptr %70(ptr noundef nonnull align 8 dereferenceable(34) %67) #16
  %72 = load ptr, ptr %71, align 8
  %73 = getelementptr inbounds i8, ptr %72, i64 1064
  %74 = load ptr, ptr %73, align 8
  call void %74(ptr noundef nonnull align 8 dereferenceable(288) %71, ptr %3) #16
  br label %75

75:                                               ; preds = %66, %58
  %76 = call noundef i64 @_ZNK4llvm15SmallVectorBaseIjE4sizeEv(ptr noundef nonnull align 8 dereferenceable(16) %25) #16
  %77 = add i64 %76, -1
  call void @_ZN4llvm15SmallVectorBaseIjE8set_sizeEm(ptr noundef nonnull align 8 dereferenceable(16) %25, i64 noundef %77) #16
  %78 = call noundef i64 @_ZNK4llvm15SmallVectorBaseImE4sizeEv(ptr noundef nonnull align 8 dereferenceable(24) %59) #16
  %79 = add i64 %78, -1
  call void @_ZN4llvm15SmallVectorBaseImE8set_sizeEm(ptr noundef nonnull align 8 dereferenceable(24) %59, i64 noundef %79) #16
  br label %_ZN12_GLOBAL__N_114COFFMasmParser21ParseDirectiveEndProcEN4llvm9StringRefENS1_5SMLocE.exit

_ZN12_GLOBAL__N_114COFFMasmParser21ParseDirectiveEndProcEN4llvm9StringRefENS1_5SMLocE.exit: ; preds = %19, %27, %_ZN4llvmplERKNS_5TwineES2_.exit.i, %75
  %.0.i = phi i1 [ %23, %19 ], [ %31, %27 ], [ false, %75 ], [ %57, %_ZN4llvmplERKNS_5TwineES2_.exit.i ]
  call void @llvm.lifetime.end.p0(i64 16, ptr nonnull %5)
  call void @llvm.lifetime.end.p0(i64 40, ptr nonnull %6)
  call void @llvm.lifetime.end.p0(i64 40, ptr nonnull %7)
  call void @llvm.lifetime.end.p0(i64 40, ptr nonnull %8)
  call void @llvm.lifetime.end.p0(i64 40, ptr nonnull %9)
  ret i1 %.0.i
}